target datalayout = "e-m:e-p270:32:32-p271:32:32-p272:64:64-i64:64-i128:128-f80:128-n8:16:32:64-S128"
target triple = "x86_64-pc-linux-gnu"

%struct.sheng = type { [256 x <2 x i64>], i32, i32, i32, i32, i8, i8, i8, i8, i32 }
%struct.sstate_aux = type { i32, i32, i32, i32 }
%struct.report_list = type { i32, [0 x i32] }
%struct.mq = type { ptr, i32, i32, ptr, ptr, i64, ptr, i64, ptr, i64, ptr, i8, ptr, ptr, [10 x %struct.mq_item] }
%struct.mq_item = type { i32, i64, i64 }

; Function Attrs: alwaysinline nounwind uwtable
define internal ptr @get_rl(ptr noundef %0, ptr noundef %1) #2 {
  %3 = alloca ptr, align 8
  %4 = alloca ptr, align 8
  store ptr %0, ptr %3, align 8
  store ptr %1, ptr %4, align 8
  br label %5

5:                                                ; preds = %2
  br label %6

6:                                                ; preds = %5
  %7 = load ptr, ptr %3, align 8
  %8 = load ptr, ptr %4, align 8
  %9 = getelementptr inbounds nuw %struct.sstate_aux, ptr %8, i32 0, i32 0
  %10 = load i32, ptr %9, align 4
  %11 = zext i32 %10 to i64
  %12 = getelementptr inbounds nuw i8, ptr %7, i64 %11
  %13 = getelementptr inbounds i8, ptr %12, i64 -64
  ret ptr %13
}

; Function Attrs: alwaysinline nounwind uwtable
define internal signext i8 @shengHasAccept(ptr noundef %0, ptr noundef %1, i32 noundef %2) #2 {
  %4 = alloca i8, align 1
  %5 = alloca ptr, align 8
  %6 = alloca ptr, align 8
  %7 = alloca i32, align 4
  %8 = alloca ptr, align 8
  %9 = alloca i32, align 4
  %10 = alloca i32, align 4
  store ptr %0, ptr %5, align 8
  store ptr %1, ptr %6, align 8
  store i32 %2, ptr %7, align 4
  call void @llvm.lifetime.start.p0(i64 8, ptr %8) #7
  %11 = load ptr, ptr %5, align 8
  %12 = load ptr, ptr %6, align 8
  %13 = call ptr @get_rl(ptr noundef %11, ptr noundef %12)
  store ptr %13, ptr %8, align 8
  br label %14

14:                                               ; preds = %3
  br label %15

15:                                               ; preds = %14
  br label %16

16:                                               ; preds = %15
  call void @llvm.lifetime.start.p0(i64 4, ptr %9) #7
  store i32 0, ptr %9, align 4
  br label %17

17:                                               ; preds = %38, %16
  %18 = load i32, ptr %9, align 4
  %19 = load ptr, ptr %8, align 8
  %20 = getelementptr inbounds nuw %struct.report_list, ptr %19, i32 0, i32 0
  %21 = load i32, ptr %20, align 4
  %22 = icmp ult i32 %18, %21
  br i1 %22, label %24, label %23

23:                                               ; preds = %17
  store i32 4, ptr %10, align 4
  br label %41

24:                                               ; preds = %17
  %25 = load ptr, ptr %8, align 8
  %26 = getelementptr inbounds nuw %struct.report_list, ptr %25, i32 0, i32 1
  %27 = load i32, ptr %9, align 4
  %28 = zext i32 %27 to i64
  %29 = getelementptr inbounds nuw [0 x i32], ptr %26, i64 0, i64 %28
  %30 = load i32, ptr %29, align 4
  %31 = load i32, ptr %7, align 4
  %32 = icmp eq i32 %30, %31
  br i1 %32, label %33, label %37

33:                                               ; preds = %24
  br label %34

34:                                               ; preds = %33
  br label %35

35:                                               ; preds = %34
  br label %36

36:                                               ; preds = %35
  store i8 1, ptr %4, align 1
  store i32 1, ptr %10, align 4
  br label %41

37:                                               ; preds = %24
  br label %38

38:                                               ; preds = %37
  %39 = load i32, ptr %9, align 4
  %40 = add i32 %39, 1
  store i32 %40, ptr %9, align 4
  br label %17

41:                                               ; preds = %36, %23
  call void @llvm.lifetime.end.p0(i64 4, ptr %9) #7
  %42 = load i32, ptr %10, align 4
  switch i32 %42, label %44 [
    i32 4, label %43
  ]

43:                                               ; preds = %41
  store i8 0, ptr %4, align 1
  store i32 1, ptr %10, align 4
  br label %44

44:                                               ; preds = %43, %41
  call void @llvm.lifetime.end.p0(i64 8, ptr %8) #7
  %45 = load i8, ptr %4, align 1
  ret i8 %45
}

; Function Attrs: alwaysinline nounwind uwtable
define internal ptr @get_aux(ptr noundef %0, i8 noundef zeroext %1) #2 {
  %3 = alloca ptr, align 8
  %4 = alloca i8, align 1
  %5 = alloca i32, align 4
  store ptr %0, ptr %3, align 8
  store i8 %1, ptr %4, align 1
  call void @llvm.lifetime.start.p0(i64 4, ptr %5) #7
  %6 = load ptr, ptr %3, align 8
  %7 = getelementptr inbounds nuw %struct.sheng, ptr %6, i32 0, i32 2
  %8 = load i32, ptr %7, align 4
  %9 = zext i32 %8 to i64
  %10 = sub i64 %9, 64
  %11 = load i8, ptr %4, align 1
  %12 = zext i8 %11 to i32
  %13 = and i32 %12, 15
  %14 = sext i32 %13 to i64
  %15 = mul i64 %14, 16
  %16 = add i64 %10, %15
  %17 = trunc i64 %16 to i32
  store i32 %17, ptr %5, align 4
  br label %18

18:                                               ; preds = %2
  br label %19

19:                                               ; preds = %18
  br label %20

20:                                               ; preds = %19
  %21 = load ptr, ptr %3, align 8
  %22 = load i32, ptr %5, align 4
  %23 = zext i32 %22 to i64
  %24 = getelementptr inbounds nuw i8, ptr %21, i64 %23
  call void @llvm.lifetime.end.p0(i64 4, ptr %5) #7
  ret ptr %24
}

; Function Attrs: nounwind uwtable
define hidden signext i8 @nfaExecSheng_inAccept(ptr noundef %0, i32 noundef %1, ptr noundef %2) #0 {
  %4 = alloca i8, align 1
  %5 = alloca ptr, align 8
  %6 = alloca i32, align 4
  %7 = alloca ptr, align 8
  %8 = alloca ptr, align 8
  %9 = alloca i8, align 1
  %10 = alloca ptr, align 8
  %11 = alloca i32, align 4
  store ptr %0, ptr %5, align 8
  store i32 %1, ptr %6, align 4
  store ptr %2, ptr %7, align 8
  call void @llvm.lifetime.start.p0(i64 8, ptr %8) #7
  %12 = load ptr, ptr %5, align 8
  %13 = call ptr @get_sheng(ptr noundef %12)
  store ptr %13, ptr %8, align 8
  call void @llvm.lifetime.start.p0(i64 1, ptr %9) #7
  %14 = load ptr, ptr %7, align 8
  %15 = getelementptr inbounds nuw %struct.mq, ptr %14, i32 0, i32 3
  %16 = load ptr, ptr %15, align 8
  %17 = load i8, ptr %16, align 1
  store i8 %17, ptr %9, align 1
  br label %18

18:                                               ; preds = %3
  br label %19

19:                                               ; preds = %18
  br label %20

20:                                               ; preds = %19
  call void @llvm.lifetime.start.p0(i64 8, ptr %10) #7
  %21 = load ptr, ptr %8, align 8
  %22 = load i8, ptr %9, align 1
  %23 = call ptr @get_aux(ptr noundef %21, i8 noundef zeroext %22)
  store ptr %23, ptr %10, align 8
  %24 = load ptr, ptr %10, align 8
  %25 = getelementptr inbounds nuw %struct.sstate_aux, ptr %24, i32 0, i32 0
  %26 = load i32, ptr %25, align 4
  %27 = icmp ne i32 %26, 0
  br i1 %27, label %29, label %28

28:                                               ; preds = %20
  store i8 0, ptr %4, align 1
  store i32 1, ptr %11, align 4
  br label %34

29:                                               ; preds = %20
  %30 = load ptr, ptr %8, align 8
  %31 = load ptr, ptr %10, align 8
  %32 = load i32, ptr %6, align 4
  %33 = call signext i8 @shengHasAccept(ptr noundef %30, ptr noundef %31, i32 noundef %32)
  store i8 %33, ptr %4, align 1
  store i32 1, ptr %11, align 4
  br label %34

34:                                               ; preds = %29, %28
  call void @llvm.lifetime.end.p0(i64 8, ptr %10) #7
  call void @llvm.lifetime.end.p0(i64 1, ptr %9) #7
  call void @llvm.lifetime.end.p0(i64 8, ptr %8) #7
  %35 = load i8, ptr %4, align 1
  ret i8 %35
}

; Function Attrs: alwaysinline nounwind uwtable
define internal ptr @get_sheng(ptr noundef %0) #2 {
  %2 = alloca ptr, align 8
  store ptr %0, ptr %2, align 8
  %3 = load ptr, ptr %2, align 8
  %4 = getelementptr inbounds nuw i8, ptr %3, i64 64
  ret ptr %4
}

; Function Attrs: nounwind uwtable
define hidden signext i8 @nfaExecSheng_QR(ptr noundef %0, ptr noundef %1, i32 noundef %2) #0 {
  %4 = alloca i8, align 1
  %5 = alloca ptr, align 8
  %6 = alloca ptr, align 8
  %7 = alloca i32, align 4
  %8 = alloca ptr, align 8
  %9 = alloca i8, align 1
  %10 = alloca i32, align 4
  store ptr %0, ptr %5, align 8
  store ptr %1, ptr %6, align 8
  store i32 %2, ptr %7, align 4
  call void @llvm.lifetime.start.p0(i64 8, ptr %8) #7
  %11 = load ptr, ptr %5, align 8
  %12 = call ptr @get_sheng(ptr noundef %11)
  store ptr %12, ptr %8, align 8
  call void @llvm.lifetime.start.p0(i64 1, ptr %9) #7
  %13 = load ptr, ptr %8, align 8
  %14 = load ptr, ptr %6, align 8
  %15 = call signext i8 @runSheng(ptr noundef %13, ptr noundef %14, i64 noundef 0, i32 noundef 2)
  store i8 %15, ptr %9, align 1
  %16 = load i8, ptr %9, align 1
  %17 = sext i8 %16 to i32
  %18 = icmp ne i32 %17, 0
  br i1 %18, label %19, label %27

19:                                               ; preds = %3
  %20 = load ptr, ptr %5, align 8
  %21 = load i32, ptr %7, align 4
  %22 = load ptr, ptr %6, align 8
  %23 = call signext i8 @nfaExecSheng_inAccept(ptr noundef %20, i32 noundef %21, ptr noundef %22)
  %24 = sext i8 %23 to i32
  %25 = icmp ne i32 %24, 0
  br i1 %25, label %26, label %27

26:                                               ; preds = %19
  store i8 2, ptr %4, align 1
  store i32 1, ptr %10, align 4
  br label %29

27:                                               ; preds = %19, %3
  %28 = load i8, ptr %9, align 1
  store i8 %28, ptr %4, align 1
  store i32 1, ptr %10, align 4
  br label %29

29:                                               ; preds = %27, %26
  call void @llvm.lifetime.end.p0(i64 1, ptr %9) #7
  call void @llvm.lifetime.end.p0(i64 8, ptr %8) #7
  %30 = load i8, ptr %4, align 1
  ret i8 %30
}