; Function Attrs: nounwind uwtable
define hidden signext range(i8 0, 3) i8 @nfaExecSheng_QR(ptr noundef %0, ptr noundef captures(none) %1, i32 noundef %2) local_unnamed_addr #1 {
  %4 = getelementptr inbounds nuw i8, ptr %0, i64 64
  %5 = tail call fastcc signext i8 @runSheng(ptr noundef nonnull %4, ptr noundef %1, i64 noundef 0, i32 noundef 2)
  %.not = icmp eq i8 %5, 0
  br i1 %.not, label %nfaExecSheng_inAccept.exit, label %6

6:                                                ; preds = %3
  %7 = getelementptr inbounds nuw i8, ptr %1, i64 16
  %8 = load ptr, ptr %7, align 8
  %9 = load i8, ptr %8, align 1
  %10 = getelementptr inbounds nuw i8, ptr %0, i64 4164
  %11 = load i32, ptr %10, align 4
  %12 = add i32 %11, -64
  %13 = shl i8 %9, 4
  %14 = zext i8 %13 to i32
  %15 = add i32 %12, %14
  %16 = zext i32 %15 to i64
  %17 = getelementptr inbounds nuw i8, ptr %4, i64 %16
  %18 = load i32, ptr %17, align 4
  %.not.i = icmp eq i32 %18, 0
  br i1 %.not.i, label %nfaExecSheng_inAccept.exit, label %19

19:                                               ; preds = %6
  %20 = zext i32 %18 to i64
  %21 = getelementptr inbounds nuw i8, ptr %4, i64 %20
  %22 = getelementptr inbounds i8, ptr %21, i64 -64
  %23 = getelementptr inbounds i8, ptr %21, i64 -60
  %24 = load i32, ptr %22, align 4
  %.not.i8.not.i = icmp eq i32 %24, 0
  br i1 %.not.i8.not.i, label %nfaExecSheng_inAccept.exit, label %.lr.ph.preheader.i

.lr.ph.preheader.i:                               ; preds = %19
  %wide.trip.count.i = zext i32 %24 to i64
  br label %.lr.ph.i

25:                                               ; preds = %.lr.ph.i
  %indvars.iv.next.i = add nuw nsw i64 %indvars.iv.i, 1
  %exitcond.not.i = icmp eq i64 %indvars.iv.next.i, %wide.trip.count.i
  br i1 %exitcond.not.i, label %nfaExecSheng_inAccept.exit, label %.lr.ph.i

.lr.ph.i:                                         ; preds = %25, %.lr.ph.preheader.i
  %indvars.iv.i = phi i64 [ 0, %.lr.ph.preheader.i ], [ %indvars.iv.next.i, %25 ]
  %26 = getelementptr inbounds nuw [0 x i32], ptr %23, i64 0, i64 %indvars.iv.i
  %27 = load i32, ptr %26, align 4
  %28 = icmp eq i32 %27, %2
  br i1 %28, label %nfaExecSheng_inAccept.exit, label %25

nfaExecSheng_inAccept.exit:                       ; preds = %25, %.lr.ph.i, %19, %6, %3
  %.0 = phi i8 [ 0, %3 ], [ %5, %6 ], [ %5, %19 ], [ %5, %25 ], [ 2, %.lr.ph.i ]
  ret i8 %.0
}